target datalayout = "e-m:e-p270:32:32-p271:32:32-p272:64:64-i64:64-i128:128-f80:128-n8:16:32:64-S128"
target triple = "x86_64-pc-linux-gnu"

; Function Attrs: inlinehint nounwind uwtable
define internal i32 @are_ec_nids_compatible(i32 noundef %0, i32 noundef %1) #4 {
  %3 = alloca i32, align 4
  %4 = alloca i32, align 4
  %5 = alloca i32, align 4
  store i32 %0, ptr %3, align 4, !tbaa !16
  store i32 %1, ptr %4, align 4, !tbaa !16
  call void @llvm.lifetime.start.p0(i64 4, ptr %5) #7
  store i32 0, ptr %5, align 4, !tbaa !16
  %6 = load i32, ptr %3, align 4, !tbaa !16
  switch i32 %6, label %79 [
    i32 717, label %7
    i32 737, label %7
    i32 721, label %16
    i32 736, label %16
    i32 726, label %25
    i32 743, label %25
    i32 727, label %34
    i32 744, label %34
    i32 684, label %43
    i32 738, label %43
    i32 704, label %52
    i32 739, label %52
    i32 710, label %61
    i32 740, label %61
    i32 713, label %70
    i32 745, label %70
  ]

7:                                                ; preds = %2, %2
  %8 = load i32, ptr %4, align 4, !tbaa !16
  %9 = icmp eq i32 %8, 717
  br i1 %9, label %13, label %10

10:                                               ; preds = %7
  %11 = load i32, ptr %4, align 4, !tbaa !16
  %12 = icmp eq i32 %11, 737
  br label %13

13:                                               ; preds = %10, %7
  %14 = phi i1 [ true, %7 ], [ %12, %10 ]
  %15 = zext i1 %14 to i32
  store i32 %15, ptr %5, align 4, !tbaa !16
  br label %84

16:                                               ; preds = %2, %2
  %17 = load i32, ptr %4, align 4, !tbaa !16
  %18 = icmp eq i32 %17, 721
  br i1 %18, label %22, label %19

19:                                               ; preds = %16
  %20 = load i32, ptr %4, align 4, !tbaa !16
  %21 = icmp eq i32 %20, 736
  br label %22

22:                                               ; preds = %19, %16
  %23 = phi i1 [ true, %16 ], [ %21, %19 ]
  %24 = zext i1 %23 to i32
  store i32 %24, ptr %5, align 4, !tbaa !16
  br label %84

25:                                               ; preds = %2, %2
  %26 = load i32, ptr %4, align 4, !tbaa !16
  %27 = icmp eq i32 %26, 726
  br i1 %27, label %31, label %28

28:                                               ; preds = %25
  %29 = load i32, ptr %4, align 4, !tbaa !16
  %30 = icmp eq i32 %29, 743
  br label %31

31:                                               ; preds = %28, %25
  %32 = phi i1 [ true, %25 ], [ %30, %28 ]
  %33 = zext i1 %32 to i32
  store i32 %33, ptr %5, align 4, !tbaa !16
  br label %84

34:                                               ; preds = %2, %2
  %35 = load i32, ptr %4, align 4, !tbaa !16
  %36 = icmp eq i32 %35, 727
  br i1 %36, label %40, label %37

37:                                               ; preds = %34
  %38 = load i32, ptr %4, align 4, !tbaa !16
  %39 = icmp eq i32 %38, 744
  br label %40

40:                                               ; preds = %37, %34
  %41 = phi i1 [ true, %34 ], [ %39, %37 ]
  %42 = zext i1 %41 to i32
  store i32 %42, ptr %5, align 4, !tbaa !16
  br label %84

43:                                               ; preds = %2, %2
  %44 = load i32, ptr %4, align 4, !tbaa !16
  %45 = icmp eq i32 %44, 684
  br i1 %45, label %49, label %46

46:                                               ; preds = %43
  %47 = load i32, ptr %4, align 4, !tbaa !16
  %48 = icmp eq i32 %47, 738
  br label %49

49:                                               ; preds = %46, %43
  %50 = phi i1 [ true, %43 ], [ %48, %46 ]
  %51 = zext i1 %50 to i32
  store i32 %51, ptr %5, align 4, !tbaa !16
  br label %84

52:                                               ; preds = %2, %2
  %53 = load i32, ptr %4, align 4, !tbaa !16
  %54 = icmp eq i32 %53, 704
  br i1 %54, label %58, label %55

55:                                               ; preds = %52
  %56 = load i32, ptr %4, align 4, !tbaa !16
  %57 = icmp eq i32 %56, 739
  br label %58

58:                                               ; preds = %55, %52
  %59 = phi i1 [ true, %52 ], [ %57, %55 ]
  %60 = zext i1 %59 to i32
  store i32 %60, ptr %5, align 4, !tbaa !16
  br label %84

61:                                               ; preds = %2, %2
  %62 = load i32, ptr %4, align 4, !tbaa !16
  %63 = icmp eq i32 %62, 710
  br i1 %63, label %67, label %64

64:                                               ; preds = %61
  %65 = load i32, ptr %4, align 4, !tbaa !16
  %66 = icmp eq i32 %65, 740
  br label %67

67:                                               ; preds = %64, %61
  %68 = phi i1 [ true, %61 ], [ %66, %64 ]
  %69 = zext i1 %68 to i32
  store i32 %69, ptr %5, align 4, !tbaa !16
  br label %84

70:                                               ; preds = %2, %2
  %71 = load i32, ptr %4, align 4, !tbaa !16
  %72 = icmp eq i32 %71, 713
  br i1 %72, label %76, label %73

73:                                               ; preds = %70
  %74 = load i32, ptr %4, align 4, !tbaa !16
  %75 = icmp eq i32 %74, 745
  br label %76

76:                                               ; preds = %73, %70
  %77 = phi i1 [ true, %70 ], [ %75, %73 ]
  %78 = zext i1 %77 to i32
  store i32 %78, ptr %5, align 4, !tbaa !16
  br label %84

79:                                               ; preds = %2
  %80 = load i32, ptr %3, align 4, !tbaa !16
  %81 = load i32, ptr %4, align 4, !tbaa !16
  %82 = icmp eq i32 %80, %81
  %83 = zext i1 %82 to i32
  store i32 %83, ptr %5, align 4, !tbaa !16
  br label %84

84:                                               ; preds = %79, %76, %67, %58, %49, %40, %31, %22, %13
  %85 = load i32, ptr %5, align 4, !tbaa !16
  call void @llvm.lifetime.end.p0(i64 4, ptr %5) #7
  ret i32 %85
}