; Function Attrs: inlinehint mustprogress nofree norecurse nosync nounwind willreturn memory(none) uwtable
define internal fastcc range(i32 0, 2) i32 @are_ec_nids_compatible(i32 noundef %0, i32 noundef %1) unnamed_addr #4 {
  switch i32 %0, label %34 [
    i32 717, label %3
    i32 737, label %3
    i32 721, label %7
    i32 736, label %7
    i32 726, label %11
    i32 743, label %11
    i32 727, label %15
    i32 744, label %15
    i32 684, label %19
    i32 738, label %19
    i32 704, label %23
    i32 739, label %23
    i32 710, label %27
    i32 740, label %27
    i32 713, label %31
    i32 745, label %31
  ]

3:                                                ; preds = %2, %2
  %4 = icmp eq i32 %1, 717
  %5 = icmp eq i32 %1, 737
  %6 = or i1 %4, %5
  br label %36

7:                                                ; preds = %2, %2
  %8 = icmp eq i32 %1, 721
  %9 = icmp eq i32 %1, 736
  %10 = or i1 %8, %9
  br label %36

11:                                               ; preds = %2, %2
  %12 = icmp eq i32 %1, 726
  %13 = icmp eq i32 %1, 743
  %14 = or i1 %12, %13
  br label %36

15:                                               ; preds = %2, %2
  %16 = icmp eq i32 %1, 727
  %17 = icmp eq i32 %1, 744
  %18 = or i1 %16, %17
  br label %36

19:                                               ; preds = %2, %2
  %20 = icmp eq i32 %1, 684
  %21 = icmp eq i32 %1, 738
  %22 = or i1 %20, %21
  br label %36

23:                                               ; preds = %2, %2
  %24 = icmp eq i32 %1, 704
  %25 = icmp eq i32 %1, 739
  %26 = or i1 %24, %25
  br label %36

27:                                               ; preds = %2, %2
  %28 = icmp eq i32 %1, 710
  %29 = icmp eq i32 %1, 740
  %30 = or i1 %28, %29
  br label %36

31:                                               ; preds = %2, %2
  %32 = and i32 %1, -33
  %33 = icmp eq i32 %32, 713
  br label %36

34:                                               ; preds = %2
  %35 = icmp eq i32 %0, %1
  br label %36

36:                                               ; preds = %34, %31, %27, %23, %19, %15, %11, %7, %3
  %.0.in = phi i1 [ %35, %34 ], [ %33, %31 ], [ %30, %27 ], [ %26, %23 ], [ %22, %19 ], [ %18, %15 ], [ %14, %11 ], [ %10, %7 ], [ %6, %3 ]
  %.0 = zext i1 %.0.in to i32
  ret i32 %.0
}